; Function Attrs: mustprogress uwtable
define void @_ZN32pxrInternal_v0_24__pxrReserved__16Usd_UsdzResolver13EndCacheScopeEPNS_7VtValueE(ptr nocapture nonnull readnone align 8 %0, ptr noundef %1) unnamed_addr #0 align 2 personality ptr @__gxx_personality_v0 {
  %3 = load atomic i8, ptr @_ZGVZN32pxrInternal_v0_24__pxrReserved__21Usd_UsdzResolverCache11GetInstanceEvE5cache acquire, align 8
  %4 = icmp eq i8 %3, 0
  br i1 %4, label %5, label %_ZN32pxrInternal_v0_24__pxrReserved__21Usd_UsdzResolverCache11GetInstanceEv.exit, !prof !4

5:                                                ; preds = %2
  %6 = tail call i32 @__cxa_guard_acquire(ptr nonnull @_ZGVZN32pxrInternal_v0_24__pxrReserved__21Usd_UsdzResolverCache11GetInstanceEvE5cache) #13
  %.not.i = icmp eq i32 %6, 0
  br i1 %.not.i, label %_ZN32pxrInternal_v0_24__pxrReserved__21Usd_UsdzResolverCache11GetInstanceEv.exit, label %7

7:                                                ; preds = %5
  invoke void @_ZN32pxrInternal_v0_24__pxrReserved__21Usd_UsdzResolverCacheC1Ev(ptr noundef nonnull align 8 dereferenceable(104) @_ZZN32pxrInternal_v0_24__pxrReserved__21Usd_UsdzResolverCache11GetInstanceEvE5cache)
          to label %8 unwind label %10

8:                                                ; preds = %7
  %9 = tail call i32 @__cxa_atexit(ptr nonnull @_ZN32pxrInternal_v0_24__pxrReserved__21Usd_UsdzResolverCacheD2Ev, ptr nonnull @_ZZN32pxrInternal_v0_24__pxrReserved__21Usd_UsdzResolverCache11GetInstanceEvE5cache, ptr nonnull @__dso_handle) #13
  tail call void @__cxa_guard_release(ptr nonnull @_ZGVZN32pxrInternal_v0_24__pxrReserved__21Usd_UsdzResolverCache11GetInstanceEvE5cache) #13
  br label %_ZN32pxrInternal_v0_24__pxrReserved__21Usd_UsdzResolverCache11GetInstanceEv.exit

10:                                               ; preds = %7
  %11 = landingpad { ptr, i32 }
          cleanup
  tail call void @__cxa_guard_abort(ptr nonnull @_ZGVZN32pxrInternal_v0_24__pxrReserved__21Usd_UsdzResolverCache11GetInstanceEvE5cache) #13
  resume { ptr, i32 } %11

_ZN32pxrInternal_v0_24__pxrReserved__21Usd_UsdzResolverCache11GetInstanceEv.exit: ; preds = %2, %5, %8
  tail call void @_ZN32pxrInternal_v0_24__pxrReserved__24ArThreadLocalScopedCacheINS_21Usd_UsdzResolverCache6_CacheEE13EndCacheScopeEPNS_7VtValueE(ptr noundef nonnull align 8 dereferenceable(104) @_ZZN32pxrInternal_v0_24__pxrReserved__21Usd_UsdzResolverCache11GetInstanceEvE5cache, ptr noundef %1)
  ret void
}